target datalayout = "e-m:e-p270:32:32-p271:32:32-p272:64:64-i64:64-i128:128-f80:128-n8:16:32:64-S128"
target triple = "x86_64-pc-linux-gnu"

%"class.icu_77::NFRule" = type { i64, i32, i16, i16, %"class.icu_77::UnicodeString", ptr, ptr, ptr, ptr }
%"class.icu_77::UnicodeString" = type { %"class.icu_77::Replaceable", %"union.icu_77::UnicodeString::StackBufferOrFields" }
%"class.icu_77::Replaceable" = type { %"class.icu_77::UObject" }
%"class.icu_77::UObject" = type { ptr }
%"union.icu_77::UnicodeString::StackBufferOrFields" = type { %struct.anon.0, [32 x i8] }
%struct.anon.0 = type { i16, i32, i32, ptr }

; Function Attrs: inlinehint mustprogress nounwind uwtable
define linkonce_odr noundef signext i8 @_ZNK6icu_7713UnicodeString7isEmptyEv(ptr noundef nonnull align 8 dereferenceable(64) %0) #2 comdat align 2 {
  %2 = alloca ptr, align 8
  store ptr %0, ptr %2, align 8, !tbaa !10
  %3 = load ptr, ptr %2, align 8
  %4 = getelementptr inbounds nuw %"class.icu_77::UnicodeString", ptr %3, i32 0, i32 1
  %5 = getelementptr inbounds nuw %struct.anon.0, ptr %4, i32 0, i32 0
  %6 = load i16, ptr %5, align 8, !tbaa !31
  %7 = sext i16 %6 to i32
  %8 = ashr i32 %7, 5
  %9 = icmp eq i32 %8, 0
  %10 = zext i1 %9 to i8
  ret i8 %10
}

; Function Attrs: mustprogress uwtable
define void @_ZN6icu_776NFRuleC2EPKNS_21RuleBasedNumberFormatERKNS_13UnicodeStringER10UErrorCode(ptr noundef nonnull align 8 dereferenceable(112) %0, ptr noundef %1, ptr noundef nonnull align 8 dereferenceable(64) %2, ptr noundef nonnull align 4 dereferenceable(4) %3) unnamed_addr #0 align 2 personality ptr @__gxx_personality_v0 {
  %5 = alloca ptr, align 8
  %6 = alloca ptr, align 8
  %7 = alloca ptr, align 8
  %8 = alloca ptr, align 8
  %9 = alloca ptr, align 8
  %10 = alloca i32, align 4
  store ptr %0, ptr %5, align 8, !tbaa !3
  store ptr %1, ptr %6, align 8, !tbaa !8
  store ptr %2, ptr %7, align 8, !tbaa !10
  store ptr %3, ptr %8, align 8, !tbaa !12
  %11 = load ptr, ptr %5, align 8
  %12 = getelementptr inbounds nuw %"class.icu_77::NFRule", ptr %11, i32 0, i32 0
  store i64 0, ptr %12, align 8, !tbaa !13
  %13 = getelementptr inbounds nuw %"class.icu_77::NFRule", ptr %11, i32 0, i32 1
  store i32 10, ptr %13, align 8, !tbaa !24
  %14 = getelementptr inbounds nuw %"class.icu_77::NFRule", ptr %11, i32 0, i32 2
  store i16 0, ptr %14, align 4, !tbaa !25
  %15 = getelementptr inbounds nuw %"class.icu_77::NFRule", ptr %11, i32 0, i32 3
  store i16 0, ptr %15, align 2, !tbaa !26
  %16 = getelementptr inbounds nuw %"class.icu_77::NFRule", ptr %11, i32 0, i32 4
  %17 = load ptr, ptr %7, align 8, !tbaa !10
  call void @_ZN6icu_7713UnicodeStringC1ERKS0_(ptr noundef nonnull align 8 dereferenceable(64) %16, ptr noundef nonnull align 8 dereferenceable(64) %17)
  %18 = getelementptr inbounds nuw %"class.icu_77::NFRule", ptr %11, i32 0, i32 5
  store ptr null, ptr %18, align 8, !tbaa !27
  %19 = getelementptr inbounds nuw %"class.icu_77::NFRule", ptr %11, i32 0, i32 6
  store ptr null, ptr %19, align 8, !tbaa !28
  %20 = getelementptr inbounds nuw %"class.icu_77::NFRule", ptr %11, i32 0, i32 7
  %21 = load ptr, ptr %6, align 8, !tbaa !8
  store ptr %21, ptr %20, align 8, !tbaa !29
  %22 = getelementptr inbounds nuw %"class.icu_77::NFRule", ptr %11, i32 0, i32 8
  store ptr null, ptr %22, align 8, !tbaa !30
  %23 = getelementptr inbounds nuw %"class.icu_77::NFRule", ptr %11, i32 0, i32 4
  %24 = invoke noundef signext i8 @_ZNK6icu_7713UnicodeString7isEmptyEv(ptr noundef nonnull align 8 dereferenceable(64) %23)
          to label %25 unwind label %31

25:                                               ; preds = %4
  %26 = icmp ne i8 %24, 0
  br i1 %26, label %35, label %27

27:                                               ; preds = %25
  %28 = getelementptr inbounds nuw %"class.icu_77::NFRule", ptr %11, i32 0, i32 4
  %29 = load ptr, ptr %8, align 8, !tbaa !12
  invoke void @_ZN6icu_776NFRule19parseRuleDescriptorERNS_13UnicodeStringER10UErrorCode(ptr noundef nonnull align 8 dereferenceable(112) %11, ptr noundef nonnull align 8 dereferenceable(64) %28, ptr noundef nonnull align 4 dereferenceable(4) %29)
          to label %30 unwind label %31

30:                                               ; preds = %27
  br label %35

31:                                               ; preds = %27, %4
  %32 = landingpad { ptr, i32 }
          cleanup
  %33 = extractvalue { ptr, i32 } %32, 0
  store ptr %33, ptr %9, align 8
  %34 = extractvalue { ptr, i32 } %32, 1
  store i32 %34, ptr %10, align 4
  call void @_ZN6icu_7713UnicodeStringD1Ev(ptr noundef nonnull align 8 dereferenceable(64) %16) #9
  br label %36

35:                                               ; preds = %30, %25
  ret void

36:                                               ; preds = %31
  %37 = load ptr, ptr %9, align 8
  %38 = load i32, ptr %10, align 4
  %39 = insertvalue { ptr, i32 } poison, ptr %37, 0
  %40 = insertvalue { ptr, i32 } %39, i32 %38, 1
  resume { ptr, i32 } %40
}