; Function Attrs: mustprogress uwtable
define void @_ZN6icu_776NFRuleC2EPKNS_21RuleBasedNumberFormatERKNS_13UnicodeStringER10UErrorCode(ptr noundef nonnull align 8 dereferenceable(112) initializes((0, 16)) %0, ptr noundef %1, ptr noundef nonnull align 8 dereferenceable(64) %2, ptr noundef nonnull align 4 dereferenceable(4) %3) unnamed_addr #0 align 2 personality ptr @__gxx_personality_v0 {
  store i64 0, ptr %0, align 8, !tbaa !3
  %5 = getelementptr inbounds nuw i8, ptr %0, i64 8
  store i32 10, ptr %5, align 8, !tbaa !18
  %6 = getelementptr inbounds nuw i8, ptr %0, i64 12
  store i16 0, ptr %6, align 4, !tbaa !19
  %7 = getelementptr inbounds nuw i8, ptr %0, i64 14
  store i16 0, ptr %7, align 2, !tbaa !20
  %8 = getelementptr inbounds nuw i8, ptr %0, i64 16
  tail call void @_ZN6icu_7713UnicodeStringC1ERKS0_(ptr noundef nonnull align 8 dereferenceable(64) %8, ptr noundef nonnull align 8 dereferenceable(64) %2)
  %9 = getelementptr inbounds nuw i8, ptr %0, i64 80
  %10 = getelementptr inbounds nuw i8, ptr %0, i64 96
  tail call void @llvm.memset.p0.i64(ptr noundef nonnull align 8 dereferenceable(16) %9, i8 0, i64 16, i1 false)
  store ptr %1, ptr %10, align 8, !tbaa !21
  %11 = getelementptr inbounds nuw i8, ptr %0, i64 104
  store ptr null, ptr %11, align 8, !tbaa !22
  %12 = getelementptr inbounds nuw i8, ptr %0, i64 24
  %13 = load i16, ptr %12, align 8, !tbaa !23
  %14 = icmp ugt i16 %13, 31
  br i1 %14, label %15, label %18

15:                                               ; preds = %4
  invoke void @_ZN6icu_776NFRule19parseRuleDescriptorERNS_13UnicodeStringER10UErrorCode(ptr noundef nonnull align 8 dereferenceable(112) %0, ptr noundef nonnull align 8 dereferenceable(64) %8, ptr noundef nonnull align 4 dereferenceable(4) %3)
          to label %18 unwind label %16

16:                                               ; preds = %15
  %17 = landingpad { ptr, i32 }
          cleanup
  tail call void @_ZN6icu_7713UnicodeStringD1Ev(ptr noundef nonnull align 8 dereferenceable(64) %8) #9
  resume { ptr, i32 } %17

18:                                               ; preds = %15, %4
  ret void
}